target datalayout = "e-m:e-p270:32:32-p271:32:32-p272:64:64-i64:64-i128:128-f80:128-n8:16:32:64-S128"
target triple = "x86_64-pc-linux-gnu"

%"struct.folly::unsafe_default_initialized_cv" = type { i8 }
%"class.folly::Executor::KeepAlive.0" = type { i64 }
%"class.folly::(anonymous namespace)::DeadlineExecutor" = type { %"class.folly::Executor", %"struct.std::atomic", i64, %"class.folly::Executor::KeepAlive.0" }
%"class.folly::Executor" = type { ptr }
%"struct.std::atomic" = type { %"struct.std::__atomic_base" }
%"struct.std::__atomic_base" = type { i64 }
%"class.folly::Function" = type { %"union.folly::detail::function::Data", ptr, ptr }
%"union.folly::detail::function::Data" = type { %"struct.folly::detail::function::Data::BigTrivialLayout", [24 x i8] }
%"struct.folly::detail::function::Data::BigTrivialLayout" = type { ptr, i64, i64 }

@_ZN5folly26unsafe_default_initializedE = linkonce_odr constant %"struct.folly::unsafe_default_initialized_cv" undef, comdat, align 1

; Function Attrs: noinline noreturn nounwind uwtable
define linkonce_odr hidden void @__clang_call_terminate(ptr noundef %0) #6 comdat {
  %2 = call ptr @__cxa_begin_catch(ptr %0) #17
  call void @_ZSt9terminatev() #20
  unreachable
}

; Function Attrs: mustprogress nounwind uwtable
define linkonce_odr noundef i64 @_ZNK5folly8FunctionIFvvEE4execENS_6detail8function2OpEPNS4_4DataES7_(ptr noundef nonnull align 16 dereferenceable(64) %0, i32 noundef %1, ptr noundef %2, ptr noundef %3) #1 comdat align 2 {
  %5 = alloca i64, align 8
  %6 = alloca ptr, align 8
  %7 = alloca i32, align 4
  %8 = alloca ptr, align 8
  %9 = alloca ptr, align 8
  store ptr %0, ptr %6, align 8, !tbaa !43
  store i32 %1, ptr %7, align 4, !tbaa !59
  store ptr %2, ptr %8, align 8, !tbaa !57
  store ptr %3, ptr %9, align 8, !tbaa !57
  %10 = load ptr, ptr %6, align 8
  %11 = getelementptr inbounds nuw %"class.folly::Function", ptr %10, i32 0, i32 2
  %12 = load ptr, ptr %11, align 8, !tbaa !54
  %13 = icmp ne ptr %12, null
  br i1 %13, label %15, label %14

14:                                               ; preds = %4
  store i64 0, ptr %5, align 8
  br label %22

15:                                               ; preds = %4
  %16 = getelementptr inbounds nuw %"class.folly::Function", ptr %10, i32 0, i32 2
  %17 = load ptr, ptr %16, align 8, !tbaa !54
  %18 = load i32, ptr %7, align 4, !tbaa !59
  %19 = load ptr, ptr %8, align 8, !tbaa !57
  %20 = load ptr, ptr %9, align 8, !tbaa !57
  %21 = call noundef i64 %17(i32 noundef %18, ptr noundef %19, ptr noundef %20) #17
  store i64 %21, ptr %5, align 8
  br label %22

22:                                               ; preds = %15, %14
  %23 = load i64, ptr %5, align 8
  ret i64 %23
}

; Function Attrs: alwaysinline mustprogress nounwind uwtable
define linkonce_odr hidden noundef ptr @_ZNK5folly29unsafe_default_initialized_cvcvT_IPvEEv(ptr noundef nonnull align 1 dereferenceable(1) %0) #8 comdat align 2 {
  %2 = alloca ptr, align 8
  store ptr %0, ptr %2, align 8, !tbaa !55
  ret ptr null
}

; Function Attrs: mustprogress nounwind uwtable
define linkonce_odr noundef ptr @_ZNK5folly8Executor9KeepAliveINS_20SoftRealTimeExecutorEE3getEv(ptr noundef nonnull align 8 dereferenceable(8) %0) #1 comdat align 2 {
  %2 = alloca ptr, align 8
  store ptr %0, ptr %2, align 8, !tbaa !14
  %3 = load ptr, ptr %2, align 8
  %4 = getelementptr inbounds nuw %"class.folly::Executor::KeepAlive.0", ptr %3, i32 0, i32 0
  %5 = load i64, ptr %4, align 8, !tbaa !24
  %6 = and i64 %5, -4
  %7 = inttoptr i64 %6 to ptr
  ret ptr %7
}

; Function Attrs: mustprogress nounwind uwtable
define linkonce_odr void @_ZN5folly8FunctionIFvvEED2Ev(ptr noundef nonnull align 16 dereferenceable(64) %0) unnamed_addr #1 comdat align 2 {
  %2 = alloca ptr, align 8
  store ptr %0, ptr %2, align 8, !tbaa !43
  %3 = load ptr, ptr %2, align 8
  %4 = getelementptr inbounds nuw %"class.folly::Function", ptr %3, i32 0, i32 0
  %5 = call noundef i64 @_ZNK5folly8FunctionIFvvEE4execENS_6detail8function2OpEPNS4_4DataES7_(ptr noundef nonnull align 16 dereferenceable(64) %3, i32 noundef 1, ptr noundef %4, ptr noundef null)
  ret void
}

; Function Attrs: mustprogress uwtable
define linkonce_odr void @_ZN5folly20SoftRealTimeExecutor3addENS_8FunctionIFvvEEEm(ptr noundef nonnull align 8 dereferenceable(8) %0, ptr noundef %1, i64 noundef %2) #0 comdat align 2 personality ptr @__gxx_personality_v0 {
  %4 = alloca ptr, align 8
  %5 = alloca ptr, align 8
  %6 = alloca i64, align 8
  %7 = alloca %"class.folly::Function", align 16
  %8 = alloca ptr, align 8
  %9 = alloca i32, align 4
  store ptr %0, ptr %4, align 8, !tbaa !7
  store ptr %1, ptr %5, align 8, !tbaa !43
  store i64 %2, ptr %6, align 8, !tbaa !12
  %10 = load ptr, ptr %4, align 8
  call void @_ZN5folly8FunctionIFvvEEC2EOS2_(ptr noundef nonnull align 16 dereferenceable(64) %7, ptr noundef nonnull align 16 dereferenceable(64) %1) #17
  %11 = load i64, ptr %6, align 8, !tbaa !12
  %12 = load ptr, ptr %10, align 8, !tbaa !16
  %13 = getelementptr inbounds ptr, ptr %12, i64 7
  %14 = load ptr, ptr %13, align 8
  invoke void %14(ptr noundef nonnull align 8 dereferenceable(8) %10, ptr noundef %7, i64 noundef 1, i64 noundef %11)
          to label %15 unwind label %16

15:                                               ; preds = %3
  call void @_ZN5folly8FunctionIFvvEED2Ev(ptr noundef nonnull align 16 dereferenceable(64) %7) #17
  ret void

16:                                               ; preds = %3
  %17 = landingpad { ptr, i32 }
          cleanup
  %18 = extractvalue { ptr, i32 } %17, 0
  store ptr %18, ptr %8, align 8
  %19 = extractvalue { ptr, i32 } %17, 1
  store i32 %19, ptr %9, align 4
  call void @_ZN5folly8FunctionIFvvEED2Ev(ptr noundef nonnull align 16 dereferenceable(64) %7) #17
  br label %20

20:                                               ; preds = %16
  %21 = load ptr, ptr %8, align 8
  %22 = load i32, ptr %9, align 4
  %23 = insertvalue { ptr, i32 } poison, ptr %21, 0
  %24 = insertvalue { ptr, i32 } %23, i32 %22, 1
  resume { ptr, i32 } %24
}

; Function Attrs: mustprogress nounwind uwtable
define linkonce_odr void @_ZN5folly8FunctionIFvvEEC2EOS2_(ptr noundef nonnull align 16 dereferenceable(64) %0, ptr noundef nonnull align 16 dereferenceable(64) %1) unnamed_addr #1 comdat align 2 personality ptr @__gxx_personality_v0 {
  %3 = alloca ptr, align 8
  %4 = alloca ptr, align 8
  store ptr %0, ptr %3, align 8, !tbaa !43
  store ptr %1, ptr %4, align 8, !tbaa !43
  %5 = load ptr, ptr %3, align 8
  %6 = getelementptr inbounds nuw %"class.folly::Function", ptr %5, i32 0, i32 0
  %7 = call noundef ptr @_ZNK5folly29unsafe_default_initialized_cvcvT_IPvEEv(ptr noundef nonnull align 1 dereferenceable(1) @_ZN5folly26unsafe_default_initializedE) #17
  store ptr %7, ptr %6, align 16, !tbaa !51
  %8 = getelementptr inbounds nuw %"class.folly::Function", ptr %5, i32 0, i32 1
  %9 = load ptr, ptr %4, align 8, !tbaa !43
  %10 = getelementptr inbounds nuw %"class.folly::Function", ptr %9, i32 0, i32 1
  %11 = load ptr, ptr %10, align 16, !tbaa !52
  store ptr %11, ptr %8, align 16, !tbaa !52
  %12 = getelementptr inbounds nuw %"class.folly::Function", ptr %5, i32 0, i32 2
  %13 = load ptr, ptr %4, align 8, !tbaa !43
  %14 = getelementptr inbounds nuw %"class.folly::Function", ptr %13, i32 0, i32 2
  %15 = load ptr, ptr %14, align 8, !tbaa !54
  store ptr %15, ptr %12, align 8, !tbaa !54
  %16 = load ptr, ptr %4, align 8, !tbaa !43
  %17 = getelementptr inbounds nuw %"class.folly::Function", ptr %16, i32 0, i32 1
  store ptr @_ZN5folly6detail8function14FunctionTraitsIFvvEE10uninitCallERNS1_4DataE, ptr %17, align 16, !tbaa !52
  %18 = load ptr, ptr %4, align 8, !tbaa !43
  %19 = getelementptr inbounds nuw %"class.folly::Function", ptr %18, i32 0, i32 2
  store ptr null, ptr %19, align 8, !tbaa !54
  %20 = load ptr, ptr %4, align 8, !tbaa !43
  %21 = getelementptr inbounds nuw %"class.folly::Function", ptr %20, i32 0, i32 0
  %22 = getelementptr inbounds nuw %"class.folly::Function", ptr %5, i32 0, i32 0
  %23 = invoke noundef i64 @_ZNK5folly8FunctionIFvvEE4execENS_6detail8function2OpEPNS4_4DataES7_(ptr noundef nonnull align 16 dereferenceable(64) %5, i32 noundef 0, ptr noundef %21, ptr noundef %22)
          to label %24 unwind label %25

24:                                               ; preds = %2
  ret void

25:                                               ; preds = %2
  %26 = landingpad { ptr, i32 }
          catch ptr null
  %27 = extractvalue { ptr, i32 } %26, 0
  call void @__clang_call_terminate(ptr %27) #20
  unreachable
}

; Function Attrs: mustprogress uwtable
define linkonce_odr noundef ptr @_ZNK5folly8Executor9KeepAliveINS_20SoftRealTimeExecutorEEptEv(ptr noundef nonnull align 8 dereferenceable(8) %0) #0 comdat align 2 {
  %2 = alloca ptr, align 8
  store ptr %0, ptr %2, align 8, !tbaa !14
  %3 = load ptr, ptr %2, align 8
  %4 = call noundef ptr @_ZNK5folly8Executor9KeepAliveINS_20SoftRealTimeExecutorEE3getEv(ptr noundef nonnull align 8 dereferenceable(8) %3)
  ret ptr %4
}

; Function Attrs: mustprogress uwtable
define internal void @_ZN5folly12_GLOBAL__N_116DeadlineExecutor3addENS_8FunctionIFvvEEE(ptr noundef nonnull align 8 dereferenceable(32) %0, ptr noundef %1) unnamed_addr #0 align 2 personality ptr @__gxx_personality_v0 {
  %3 = alloca ptr, align 8
  %4 = alloca ptr, align 8
  %5 = alloca %"class.folly::Function", align 16
  %6 = alloca ptr, align 8
  %7 = alloca i32, align 4
  store ptr %0, ptr %3, align 8, !tbaa !20
  store ptr %1, ptr %4, align 8, !tbaa !43
  %8 = load ptr, ptr %3, align 8
  %9 = getelementptr inbounds nuw %"class.folly::(anonymous namespace)::DeadlineExecutor", ptr %8, i32 0, i32 3
  %10 = call noundef ptr @_ZNK5folly8Executor9KeepAliveINS_20SoftRealTimeExecutorEEptEv(ptr noundef nonnull align 8 dereferenceable(8) %9)
  call void @_ZN5folly8FunctionIFvvEEC2EOS2_(ptr noundef nonnull align 16 dereferenceable(64) %5, ptr noundef nonnull align 16 dereferenceable(64) %1) #17
  %11 = getelementptr inbounds nuw %"class.folly::(anonymous namespace)::DeadlineExecutor", ptr %8, i32 0, i32 2
  %12 = load i64, ptr %11, align 8, !tbaa !26
  invoke void @_ZN5folly20SoftRealTimeExecutor3addENS_8FunctionIFvvEEEm(ptr noundef nonnull align 8 dereferenceable(8) %10, ptr noundef %5, i64 noundef %12)
          to label %13 unwind label %14

13:                                               ; preds = %2
  call void @_ZN5folly8FunctionIFvvEED2Ev(ptr noundef nonnull align 16 dereferenceable(64) %5) #17
  ret void

14:                                               ; preds = %2
  %15 = landingpad { ptr, i32 }
          cleanup
  %16 = extractvalue { ptr, i32 } %15, 0
  store ptr %16, ptr %6, align 8
  %17 = extractvalue { ptr, i32 } %15, 1
  store i32 %17, ptr %7, align 4
  call void @_ZN5folly8FunctionIFvvEED2Ev(ptr noundef nonnull align 16 dereferenceable(64) %5) #17
  br label %18

18:                                               ; preds = %14
  %19 = load ptr, ptr %6, align 8
  %20 = load i32, ptr %7, align 4
  %21 = insertvalue { ptr, i32 } poison, ptr %19, 0
  %22 = insertvalue { ptr, i32 } %21, i32 %20, 1
  resume { ptr, i32 } %22
}