; Function Attrs: mustprogress uwtable
define internal void @_ZN5folly12_GLOBAL__N_116DeadlineExecutor3addENS_8FunctionIFvvEEE(ptr noundef nonnull readonly align 8 captures(none) dereferenceable(32) %0, ptr noundef %1) unnamed_addr #0 align 2 personality ptr @__gxx_personality_v0 {
  %3 = alloca %"class.folly::Function", align 16
  %4 = alloca %"class.folly::Function", align 16
  %5 = getelementptr inbounds nuw i8, ptr %0, i64 24
  %6 = load i64, ptr %5, align 8, !tbaa !25
  %7 = and i64 %6, -4
  %8 = inttoptr i64 %7 to ptr
  store ptr null, ptr %4, align 16, !tbaa !29
  %9 = getelementptr inbounds nuw i8, ptr %4, i64 48
  %10 = getelementptr inbounds nuw i8, ptr %1, i64 48
  %11 = load ptr, ptr %10, align 16, !tbaa !30
  store ptr %11, ptr %9, align 16, !tbaa !30
  %12 = getelementptr inbounds nuw i8, ptr %4, i64 56
  %13 = getelementptr inbounds nuw i8, ptr %1, i64 56
  %14 = load ptr, ptr %13, align 8, !tbaa !33
  store ptr %14, ptr %12, align 8, !tbaa !33
  store ptr @_ZN5folly6detail8function14FunctionTraitsIFvvEE10uninitCallERNS1_4DataE, ptr %10, align 16, !tbaa !30
  store ptr null, ptr %13, align 8, !tbaa !33
  %.not.i.i = icmp eq ptr %14, null
  br i1 %.not.i.i, label %_ZN5folly8FunctionIFvvEEC2EOS2_.exit, label %15

15:                                               ; preds = %2
  %16 = call noundef i64 %14(i32 noundef 0, ptr noundef nonnull align 16 dereferenceable(64) %1, ptr noundef nonnull align 16 dereferenceable(64) %4) #12
  %.pre = load ptr, ptr %9, align 16, !tbaa !30
  %.pre5 = load ptr, ptr %12, align 8, !tbaa !33
  br label %_ZN5folly8FunctionIFvvEEC2EOS2_.exit

_ZN5folly8FunctionIFvvEEC2EOS2_.exit:             ; preds = %2, %15
  %17 = phi ptr [ null, %2 ], [ %.pre5, %15 ]
  %18 = phi ptr [ %11, %2 ], [ %.pre, %15 ]
  %19 = getelementptr inbounds nuw i8, ptr %0, i64 16
  %20 = load i64, ptr %19, align 8, !tbaa !20
  call void @llvm.lifetime.start.p0(i64 64, ptr nonnull %3)
  store ptr null, ptr %3, align 16, !tbaa !29
  %21 = getelementptr inbounds nuw i8, ptr %3, i64 48
  store ptr %18, ptr %21, align 16, !tbaa !30
  %22 = getelementptr inbounds nuw i8, ptr %3, i64 56
  store ptr %17, ptr %22, align 8, !tbaa !33
  store ptr @_ZN5folly6detail8function14FunctionTraitsIFvvEE10uninitCallERNS1_4DataE, ptr %9, align 16, !tbaa !30
  store ptr null, ptr %12, align 8, !tbaa !33
  %.not.i.i.i = icmp eq ptr %17, null
  br i1 %.not.i.i.i, label %_ZN5folly8FunctionIFvvEEC2EOS2_.exit.i, label %23

23:                                               ; preds = %_ZN5folly8FunctionIFvvEEC2EOS2_.exit
  %24 = call noundef i64 %17(i32 noundef 0, ptr noundef nonnull align 16 dereferenceable(64) %4, ptr noundef nonnull align 16 dereferenceable(64) %3) #12
  br label %_ZN5folly8FunctionIFvvEEC2EOS2_.exit.i

_ZN5folly8FunctionIFvvEEC2EOS2_.exit.i:           ; preds = %23, %_ZN5folly8FunctionIFvvEEC2EOS2_.exit
  %25 = load ptr, ptr %8, align 8, !tbaa !7
  %26 = getelementptr inbounds nuw i8, ptr %25, i64 56
  %27 = load ptr, ptr %26, align 8
  invoke void %27(ptr noundef nonnull align 8 dereferenceable(8) %8, ptr noundef nonnull %3, i64 noundef 1, i64 noundef %20)
          to label %28 unwind label %32

28:                                               ; preds = %_ZN5folly8FunctionIFvvEEC2EOS2_.exit.i
  %29 = load ptr, ptr %22, align 8, !tbaa !33
  %.not.i.i3.i = icmp eq ptr %29, null
  br i1 %.not.i.i3.i, label %37, label %30

30:                                               ; preds = %28
  %31 = call noundef i64 %29(i32 noundef 1, ptr noundef nonnull align 16 dereferenceable(64) %3, ptr noundef null) #12
  br label %37

32:                                               ; preds = %_ZN5folly8FunctionIFvvEEC2EOS2_.exit.i
  %33 = landingpad { ptr, i32 }
          cleanup
  %34 = load ptr, ptr %22, align 8, !tbaa !33
  %.not.i.i4.i = icmp eq ptr %34, null
  br i1 %.not.i.i4.i, label %.body, label %35

35:                                               ; preds = %32
  %36 = call noundef i64 %34(i32 noundef 1, ptr noundef nonnull align 16 dereferenceable(64) %3, ptr noundef null) #12
  br label %.body

37:                                               ; preds = %30, %28
  call void @llvm.lifetime.end.p0(i64 64, ptr nonnull %3)
  %38 = load ptr, ptr %12, align 8, !tbaa !33
  %.not.i.i2 = icmp eq ptr %38, null
  br i1 %.not.i.i2, label %_ZN5folly8FunctionIFvvEED2Ev.exit, label %39

39:                                               ; preds = %37
  %40 = call noundef i64 %38(i32 noundef 1, ptr noundef nonnull align 16 dereferenceable(64) %4, ptr noundef null) #12
  br label %_ZN5folly8FunctionIFvvEED2Ev.exit

_ZN5folly8FunctionIFvvEED2Ev.exit:                ; preds = %37, %39
  ret void

.body:                                            ; preds = %32, %35
  %41 = load ptr, ptr %12, align 8, !tbaa !33
  %.not.i.i3 = icmp eq ptr %41, null
  br i1 %.not.i.i3, label %_ZN5folly8FunctionIFvvEED2Ev.exit4, label %42

42:                                               ; preds = %.body
  %43 = call noundef i64 %41(i32 noundef 1, ptr noundef nonnull align 16 dereferenceable(64) %4, ptr noundef null) #12
  br label %_ZN5folly8FunctionIFvvEED2Ev.exit4

_ZN5folly8FunctionIFvvEED2Ev.exit4:               ; preds = %.body, %42
  resume { ptr, i32 } %33
}